target datalayout = "e-m:e-p270:32:32-p271:32:32-p272:64:64-i64:64-i128:128-f80:128-n8:16:32:64-S128"
target triple = "x86_64-pc-linux-gnu"

%struct.Ver_Man_t_ = type { i32, i32, i32, ptr, ptr, i32, ptr, ptr, ptr, ptr, i32, i32, [2000 x i8], ptr, ptr, ptr, ptr }

; Function Attrs: nounwind uwtable
define i32 @Ver_ParseLookupSuffix(ptr noundef %0, ptr noundef %1, ptr noundef %2, ptr noundef %3) #0 {
  %5 = alloca i32, align 4
  %6 = alloca ptr, align 8
  %7 = alloca ptr, align 8
  %8 = alloca ptr, align 8
  %9 = alloca ptr, align 8
  %10 = alloca i32, align 4
  %11 = alloca i32, align 4
  store ptr %0, ptr %6, align 8, !tbaa !12
  store ptr %1, ptr %7, align 8, !tbaa !3
  store ptr %2, ptr %8, align 8, !tbaa !62
  store ptr %3, ptr %9, align 8, !tbaa !62
  call void @llvm.lifetime.start.p0(i64 4, ptr %10) #10
  %12 = load ptr, ptr %9, align 8, !tbaa !62
  store i32 -1, ptr %12, align 4, !tbaa !10
  %13 = load ptr, ptr %8, align 8, !tbaa !62
  store i32 -1, ptr %13, align 4, !tbaa !10
  %14 = load ptr, ptr %6, align 8, !tbaa !12
  %15 = getelementptr inbounds nuw %struct.Ver_Man_t_, ptr %14, i32 0, i32 8
  %16 = load ptr, ptr %15, align 8, !tbaa !63
  %17 = icmp eq ptr %16, null
  br i1 %17, label %18, label %19

18:                                               ; preds = %4
  store i32 1, ptr %5, align 4
  store i32 1, ptr %11, align 4
  br label %35

19:                                               ; preds = %4
  %20 = load ptr, ptr %6, align 8, !tbaa !12
  %21 = getelementptr inbounds nuw %struct.Ver_Man_t_, ptr %20, i32 0, i32 8
  %22 = load ptr, ptr %21, align 8, !tbaa !63
  %23 = load ptr, ptr %7, align 8, !tbaa !3
  %24 = call i32 @st__lookup(ptr noundef %22, ptr noundef %23, ptr noundef %10)
  %25 = icmp ne i32 %24, 0
  br i1 %25, label %27, label %26

26:                                               ; preds = %19
  store i32 1, ptr %5, align 4
  store i32 1, ptr %11, align 4
  br label %35

27:                                               ; preds = %19
  %28 = load i32, ptr %10, align 4, !tbaa !10
  %29 = lshr i32 %28, 8
  %30 = and i32 %29, 255
  %31 = load ptr, ptr %8, align 8, !tbaa !62
  store i32 %30, ptr %31, align 4, !tbaa !10
  %32 = load i32, ptr %10, align 4, !tbaa !10
  %33 = and i32 %32, 255
  %34 = load ptr, ptr %9, align 8, !tbaa !62
  store i32 %33, ptr %34, align 4, !tbaa !10
  store i32 1, ptr %5, align 4
  store i32 1, ptr %11, align 4
  br label %35

35:                                               ; preds = %27, %26, %18
  call void @llvm.lifetime.end.p0(i64 4, ptr %10) #10
  %36 = load i32, ptr %5, align 4
  ret i32 %36
}