; Function Attrs: nounwind uwtable
define noundef i32 @Ver_ParseLookupSuffix(ptr noundef readonly captures(none) %0, ptr noundef %1, ptr noundef writeonly captures(none) initializes((0, 4)) %2, ptr noundef writeonly captures(none) initializes((0, 4)) %3) local_unnamed_addr #0 {
  %5 = alloca i32, align 4
  call void @llvm.lifetime.start.p0(i64 4, ptr nonnull %5) #20
  store i32 -1, ptr %3, align 4, !tbaa !37
  store i32 -1, ptr %2, align 4, !tbaa !37
  %6 = getelementptr inbounds nuw i8, ptr %0, i64 56
  %7 = load ptr, ptr %6, align 8, !tbaa !91
  %8 = icmp eq ptr %7, null
  br i1 %8, label %16, label %9

9:                                                ; preds = %4
  %10 = call i32 @st__lookup(ptr noundef nonnull %7, ptr noundef %1, ptr noundef nonnull %5) #20
  %.not = icmp eq i32 %10, 0
  br i1 %.not, label %16, label %11

11:                                               ; preds = %9
  %12 = load i32, ptr %5, align 4, !tbaa !37
  %13 = lshr i32 %12, 8
  %14 = and i32 %13, 255
  store i32 %14, ptr %2, align 4, !tbaa !37
  %15 = and i32 %12, 255
  store i32 %15, ptr %3, align 4, !tbaa !37
  br label %16

16:                                               ; preds = %9, %4, %11
  call void @llvm.lifetime.end.p0(i64 4, ptr nonnull %5) #20
  ret i32 1
}